; Function Attrs: nounwind sspstrong uwtable
define internal i64 @numeric_numerator(i64 noundef %0) #0 {
  %2 = tail call i64 (i64, i64, i32, ...) @rb_funcall(i64 noundef %0, i64 noundef 3409, i32 noundef 0) #17
  %.pr.i = load i64, ptr @numeric_numerator.rbimpl_id, align 8, !tbaa !18
  %.not4.i = icmp eq i64 %.pr.i, 0
  br i1 %.not4.i, label %.lr.ph.i, label %rbimpl_intern_const.exit

.lr.ph.i:                                         ; preds = %1, %.lr.ph.i
  %3 = tail call i64 @rb_intern2(ptr noundef nonnull @.str.11, i64 noundef 9) #17
  store i64 %3, ptr @numeric_numerator.rbimpl_id, align 8, !tbaa !18
  %.not.i = icmp eq i64 %3, 0
  br i1 %.not.i, label %.lr.ph.i, label %rbimpl_intern_const.exit, !llvm.loop !33

rbimpl_intern_const.exit:                         ; preds = %.lr.ph.i, %1
  %.lcssa.i = phi i64 [ %.pr.i, %1 ], [ %3, %.lr.ph.i ]
  %4 = tail call i64 (i64, i64, i32, ...) @rb_funcall(i64 noundef %2, i64 noundef %.lcssa.i, i32 noundef 0) #17
  ret i64 %4
}